target datalayout = "e-m:e-p270:32:32-p271:32:32-p272:64:64-i64:64-i128:128-f80:128-n8:16:32:64-S128"
target triple = "x86_64-pc-linux-gnu"

%struct.H5C_class_t = type { i32, ptr, i32, i32, ptr, ptr, ptr, ptr, ptr, ptr, ptr, ptr, ptr, ptr }

@.str.1 = private unnamed_addr constant [104 x i8] c"generated/home/dtcxzyw/WorkSpace/Projects/compilers/llvm-opt-benchmark/bench/hdf5/hdf5/src/H5HFdblock.c\00", align 1
@H5E_HEAP_g = external global i64, align 8
@H5AC_FHEAP_DBLOCK = external constant [1 x %struct.H5C_class_t], align 16
@H5E_CANTFREE_g = external global i64, align 8
@H5E_CANTGET_g = external global i64, align 8
@__func__.H5HF__man_dblock_delete = private unnamed_addr constant [24 x i8] c"H5HF__man_dblock_delete\00", align 1
@.str.29 = private unnamed_addr constant [55 x i8] c"unable to check metadata cache status for direct block\00", align 1
@H5E_CANTREMOVE_g = external global i64, align 8
@.str.30 = private unnamed_addr constant [41 x i8] c"unable to remove direct block from cache\00", align 1
@.str.31 = private unnamed_addr constant [52 x i8] c"unable to free fractal heap direct block file space\00", align 1

; Function Attrs: nounwind uwtable
define i32 @H5HF__man_dblock_delete(ptr noundef %0, i64 noundef %1, i64 noundef %2) #0 {
  %4 = alloca ptr, align 8
  %5 = alloca i64, align 8
  %6 = alloca i64, align 8
  %7 = alloca i32, align 4
  %8 = alloca i32, align 4
  %9 = alloca i8, align 1
  store ptr %0, ptr %4, align 8
  store i64 %1, ptr %5, align 8
  store i64 %2, ptr %6, align 8
  store i32 0, ptr %7, align 4
  store i32 0, ptr %8, align 4
  store i8 0, ptr %9, align 1
  %10 = load ptr, ptr %4, align 8
  %11 = load i64, ptr %5, align 8
  %12 = call i32 @H5AC_get_entry_status(ptr noundef %10, i64 noundef %11, ptr noundef %7)
  %13 = icmp slt i32 %12, 0
  br i1 %13, label %14, label %29

14:                                               ; preds = %3
  br label %15

15:                                               ; preds = %14
  br label %16

16:                                               ; preds = %15
  br label %17

17:                                               ; preds = %16
  %18 = load i64, ptr @H5E_HEAP_g, align 8
  %19 = load i64, ptr @H5E_CANTGET_g, align 8
  %20 = call i32 (ptr, ptr, i32, i64, i64, ptr, ...) @H5E_printf_stack(ptr noundef @.str.1, ptr noundef @__func__.H5HF__man_dblock_delete, i32 noundef 616, i64 noundef %18, i64 noundef %19, ptr noundef @.str.29)
  br label %21

21:                                               ; preds = %17
  store i8 1, ptr %9, align 1
  %22 = load i8, ptr %9, align 1
  %23 = trunc i8 %22 to i1
  %24 = zext i1 %23 to i8
  store i8 %24, ptr %9, align 1
  br label %25

25:                                               ; preds = %21
  br label %26

26:                                               ; preds = %25
  store i32 -1, ptr %8, align 4
  br label %81

27:                                               ; No predecessors!
  br label %28

28:                                               ; preds = %27
  br label %29

29:                                               ; preds = %28, %3
  %30 = load i32, ptr %7, align 4
  %31 = and i32 %30, 1
  %32 = icmp ne i32 %31, 0
  br i1 %32, label %33, label %54

33:                                               ; preds = %29
  %34 = load ptr, ptr %4, align 8
  %35 = load i64, ptr %5, align 8
  %36 = call i32 @H5AC_expunge_entry(ptr noundef %34, ptr noundef @H5AC_FHEAP_DBLOCK, i64 noundef %35, i32 noundef 0)
  %37 = icmp slt i32 %36, 0
  br i1 %37, label %38, label %53

38:                                               ; preds = %33
  br label %39

39:                                               ; preds = %38
  br label %40

40:                                               ; preds = %39
  br label %41

41:                                               ; preds = %40
  %42 = load i64, ptr @H5E_HEAP_g, align 8
  %43 = load i64, ptr @H5E_CANTREMOVE_g, align 8
  %44 = call i32 (ptr, ptr, i32, i64, i64, ptr, ...) @H5E_printf_stack(ptr noundef @.str.1, ptr noundef @__func__.H5HF__man_dblock_delete, i32 noundef 626, i64 noundef %42, i64 noundef %43, ptr noundef @.str.30)
  br label %45

45:                                               ; preds = %41
  store i8 1, ptr %9, align 1
  %46 = load i8, ptr %9, align 1
  %47 = trunc i8 %46 to i1
  %48 = zext i1 %47 to i8
  store i8 %48, ptr %9, align 1
  br label %49

49:                                               ; preds = %45
  br label %50

50:                                               ; preds = %49
  store i32 -1, ptr %8, align 4
  br label %81

51:                                               ; No predecessors!
  br label %52

52:                                               ; preds = %51
  br label %53

53:                                               ; preds = %52, %33
  br label %54

54:                                               ; preds = %53, %29
  %55 = load ptr, ptr %4, align 8
  %56 = load i64, ptr %5, align 8
  %57 = call zeroext i1 @H5F_is_tmp_addr(ptr noundef %55, i64 noundef %56)
  br i1 %57, label %80, label %58

58:                                               ; preds = %54
  %59 = load ptr, ptr %4, align 8
  %60 = load i64, ptr %5, align 8
  %61 = load i64, ptr %6, align 8
  %62 = call i32 @H5MF_xfree(ptr noundef %59, i32 noundef 5, i64 noundef %60, i64 noundef %61)
  %63 = icmp slt i32 %62, 0
  br i1 %63, label %64, label %79

64:                                               ; preds = %58
  br label %65

65:                                               ; preds = %64
  br label %66

66:                                               ; preds = %65
  br label %67

67:                                               ; preds = %66
  %68 = load i64, ptr @H5E_HEAP_g, align 8
  %69 = load i64, ptr @H5E_CANTFREE_g, align 8
  %70 = call i32 (ptr, ptr, i32, i64, i64, ptr, ...) @H5E_printf_stack(ptr noundef @.str.1, ptr noundef @__func__.H5HF__man_dblock_delete, i32 noundef 644, i64 noundef %68, i64 noundef %69, ptr noundef @.str.31)
  br label %71

71:                                               ; preds = %67
  store i8 1, ptr %9, align 1
  %72 = load i8, ptr %9, align 1
  %73 = trunc i8 %72 to i1
  %74 = zext i1 %73 to i8
  store i8 %74, ptr %9, align 1
  br label %75

75:                                               ; preds = %71
  br label %76

76:                                               ; preds = %75
  store i32 -1, ptr %8, align 4
  br label %81

77:                                               ; No predecessors!
  br label %78

78:                                               ; preds = %77
  br label %79

79:                                               ; preds = %78, %58
  br label %80

80:                                               ; preds = %79, %54
  br label %81

81:                                               ; preds = %80, %76, %50, %26
  %82 = load i32, ptr %8, align 4
  ret i32 %82
}