; Function Attrs: nounwind uwtable
define range(i32 -1, 1) i32 @H5HF__man_dblock_delete(ptr noundef %0, i64 noundef %1, i64 noundef %2) local_unnamed_addr #0 {
  %4 = alloca i32, align 4
  store i32 0, ptr %4, align 4
  %5 = call i32 @H5AC_get_entry_status(ptr noundef %0, i64 noundef %1, ptr noundef nonnull %4) #4
  %6 = icmp slt i32 %5, 0
  br i1 %6, label %7, label %11

7:                                                ; preds = %3
  %8 = load i64, ptr @H5E_HEAP_g, align 8
  %9 = load i64, ptr @H5E_CANTGET_g, align 8
  %10 = call i32 (ptr, ptr, i32, i64, i64, ptr, ...) @H5E_printf_stack(ptr noundef nonnull @.str.1, ptr noundef nonnull @__func__.H5HF__man_dblock_delete, i32 noundef 616, i64 noundef %8, i64 noundef %9, ptr noundef nonnull @.str.29) #4
  br label %30

11:                                               ; preds = %3
  %12 = load i32, ptr %4, align 4
  %13 = and i32 %12, 1
  %.not = icmp eq i32 %13, 0
  br i1 %.not, label %21, label %14

14:                                               ; preds = %11
  %15 = call i32 @H5AC_expunge_entry(ptr noundef %0, ptr noundef nonnull @H5AC_FHEAP_DBLOCK, i64 noundef %1, i32 noundef 0) #4
  %16 = icmp slt i32 %15, 0
  br i1 %16, label %17, label %21

17:                                               ; preds = %14
  %18 = load i64, ptr @H5E_HEAP_g, align 8
  %19 = load i64, ptr @H5E_CANTREMOVE_g, align 8
  %20 = call i32 (ptr, ptr, i32, i64, i64, ptr, ...) @H5E_printf_stack(ptr noundef nonnull @.str.1, ptr noundef nonnull @__func__.H5HF__man_dblock_delete, i32 noundef 626, i64 noundef %18, i64 noundef %19, ptr noundef nonnull @.str.30) #4
  br label %30

21:                                               ; preds = %14, %11
  %22 = call zeroext i1 @H5F_is_tmp_addr(ptr noundef %0, i64 noundef %1) #4
  br i1 %22, label %30, label %23

23:                                               ; preds = %21
  %24 = call i32 @H5MF_xfree(ptr noundef %0, i32 noundef 5, i64 noundef %1, i64 noundef %2) #4
  %25 = icmp slt i32 %24, 0
  br i1 %25, label %26, label %30

26:                                               ; preds = %23
  %27 = load i64, ptr @H5E_HEAP_g, align 8
  %28 = load i64, ptr @H5E_CANTFREE_g, align 8
  %29 = call i32 (ptr, ptr, i32, i64, i64, ptr, ...) @H5E_printf_stack(ptr noundef nonnull @.str.1, ptr noundef nonnull @__func__.H5HF__man_dblock_delete, i32 noundef 644, i64 noundef %27, i64 noundef %28, ptr noundef nonnull @.str.31) #4
  br label %30

30:                                               ; preds = %21, %23, %26, %17, %7
  %.0 = phi i32 [ -1, %7 ], [ -1, %17 ], [ 0, %21 ], [ -1, %26 ], [ 0, %23 ]
  ret i32 %.0
}